; Function Attrs: mustprogress nofree norecurse nosync nounwind willreturn memory(argmem: write) uwtable
define range(i32 0, 2) i32 @ossl_quic_demux_set_mtu(ptr noundef writeonly captures(none) %0, i32 noundef %1) local_unnamed_addr #3 {
  %3 = icmp ult i32 %1, 1200
  br i1 %3, label %7, label %4

4:                                                ; preds = %2
  %5 = zext i32 %1 to i64
  %6 = getelementptr inbounds nuw i8, ptr %0, i64 16
  store i64 %5, ptr %6, align 8, !tbaa !13
  br label %7

7:                                                ; preds = %2, %4
  %.0 = phi i32 [ 1, %4 ], [ 0, %2 ]
  ret i32 %.0
}